; Function Attrs: nounwind uwtable
define hidden ptr @_PyAST_GeneratorExp(ptr noundef %0, ptr noundef %1, i32 noundef %2, i32 noundef %3, i32 noundef %4, i32 noundef %5, ptr noundef %6) local_unnamed_addr #0 {
  %.not = icmp eq ptr %0, null
  br i1 %.not, label %8, label %10

8:                                                ; preds = %7
  %9 = load ptr, ptr @PyExc_ValueError, align 8, !tbaa !4
  tail call void @PyErr_SetString(ptr noundef %9, ptr noundef nonnull @.str.41) #8
  br label %19

10:                                               ; preds = %7
  %11 = tail call ptr @_PyArena_Malloc(ptr noundef %6, i64 noundef 48) #8
  %.not19 = icmp eq ptr %11, null
  br i1 %.not19, label %19, label %12

12:                                               ; preds = %10
  store i32 12, ptr %11, align 8, !tbaa !26
  %13 = getelementptr inbounds nuw i8, ptr %11, i64 8
  store ptr %0, ptr %13, align 8, !tbaa !9
  %14 = getelementptr inbounds nuw i8, ptr %11, i64 16
  store ptr %1, ptr %14, align 8, !tbaa !9
  %15 = getelementptr inbounds nuw i8, ptr %11, i64 32
  store i32 %2, ptr %15, align 8, !tbaa !28
  %16 = getelementptr inbounds nuw i8, ptr %11, i64 36
  store i32 %3, ptr %16, align 4, !tbaa !29
  %17 = getelementptr inbounds nuw i8, ptr %11, i64 40
  store i32 %4, ptr %17, align 8, !tbaa !30
  %18 = getelementptr inbounds nuw i8, ptr %11, i64 44
  store i32 %5, ptr %18, align 4, !tbaa !31
  br label %19

19:                                               ; preds = %10, %12, %8
  %.0 = phi ptr [ %11, %12 ], [ null, %8 ], [ null, %10 ]
  ret ptr %.0
}